; Function Attrs: nounwind uwtable
define ptr @l_Lake_EStateT_modifyGet___rarg(ptr noundef %0, ptr noundef %1, ptr noundef %2) #0 {
  %4 = tail call ptr @lean_apply_1(ptr noundef %1, ptr noundef %2) #4
  %.val = load i32, ptr %4, align 4, !tbaa !4
  %5 = icmp eq i32 %.val, 1
  br i1 %5, label %42, label %6

6:                                                ; preds = %3
  %7 = getelementptr inbounds nuw i8, ptr %4, i64 8
  %8 = load ptr, ptr %7, align 8, !tbaa !9
  %9 = getelementptr inbounds nuw i8, ptr %4, i64 16
  %10 = load ptr, ptr %9, align 8, !tbaa !9
  %11 = ptrtoint ptr %10 to i64
  %12 = and i64 %11, 1
  %.not = icmp eq i64 %12, 0
  br i1 %.not, label %13, label %lean_inc.exit19

13:                                               ; preds = %6
  %.val.i = load i32, ptr %10, align 4, !tbaa !4
  %14 = icmp sgt i32 %.val.i, 0
  br i1 %14, label %15, label %17, !prof !13

15:                                               ; preds = %13
  %16 = add nuw i32 %.val.i, 1
  store i32 %16, ptr %10, align 4, !tbaa !4
  br label %lean_inc.exit19

17:                                               ; preds = %13
  %.not.i20 = icmp eq i32 %.val.i, 0
  br i1 %.not.i20, label %lean_inc.exit19, label %18

18:                                               ; preds = %17
  tail call void @lean_inc_ref_cold(ptr noundef nonnull %10) #4
  br label %lean_inc.exit19

lean_inc.exit19:                                  ; preds = %18, %17, %15, %6
  %19 = ptrtoint ptr %8 to i64
  %20 = and i64 %19, 1
  %.not24 = icmp eq i64 %20, 0
  br i1 %.not24, label %21, label %lean_inc.exit

21:                                               ; preds = %lean_inc.exit19
  %.val.i21 = load i32, ptr %8, align 4, !tbaa !4
  %22 = icmp sgt i32 %.val.i21, 0
  br i1 %22, label %23, label %25, !prof !13

23:                                               ; preds = %21
  %24 = add nuw i32 %.val.i21, 1
  store i32 %24, ptr %8, align 4, !tbaa !4
  br label %lean_inc.exit

25:                                               ; preds = %21
  %.not.i22 = icmp eq i32 %.val.i21, 0
  br i1 %.not.i22, label %lean_inc.exit, label %26

26:                                               ; preds = %25
  tail call void @lean_inc_ref_cold(ptr noundef nonnull %8) #4
  br label %lean_inc.exit

lean_inc.exit:                                    ; preds = %26, %25, %23, %lean_inc.exit19
  %27 = ptrtoint ptr %4 to i64
  %28 = and i64 %27, 1
  %.not25 = icmp eq i64 %28, 0
  br i1 %.not25, label %29, label %lean_dec.exit

29:                                               ; preds = %lean_inc.exit
  %30 = load i32, ptr %4, align 4, !tbaa !4
  %31 = icmp sgt i32 %30, 1
  br i1 %31, label %32, label %34, !prof !13

32:                                               ; preds = %29
  %33 = add nsw i32 %30, -1
  store i32 %33, ptr %4, align 4, !tbaa !4
  br label %lean_dec.exit

34:                                               ; preds = %29
  %.not.i = icmp eq i32 %30, 0
  br i1 %.not.i, label %lean_dec.exit, label %35

35:                                               ; preds = %34
  tail call void @lean_dec_ref_cold(ptr noundef nonnull %4) #4
  br label %lean_dec.exit

lean_dec.exit:                                    ; preds = %35, %34, %32, %lean_inc.exit
  tail call void @lean_inc_heartbeat() #4
  %36 = tail call noalias ptr @mi_malloc_small(i64 noundef 24) #4
  %37 = icmp eq ptr %36, null
  br i1 %37, label %38, label %lean_alloc_ctor.exit

38:                                               ; preds = %lean_dec.exit
  tail call void @lean_internal_panic_out_of_memory() #5
  unreachable

lean_alloc_ctor.exit:                             ; preds = %lean_dec.exit
  %39 = getelementptr inbounds nuw i8, ptr %36, i64 4
  store i32 1, ptr %36, align 4, !tbaa !4
  store i32 131096, ptr %39, align 4
  %40 = getelementptr inbounds nuw i8, ptr %36, i64 8
  store ptr %8, ptr %40, align 8, !tbaa !9
  %41 = getelementptr inbounds nuw i8, ptr %36, i64 16
  store ptr %10, ptr %41, align 8, !tbaa !9
  br label %42

42:                                               ; preds = %3, %lean_alloc_ctor.exit
  %.sink = phi ptr [ %36, %lean_alloc_ctor.exit ], [ %4, %3 ]
  %43 = tail call ptr @lean_apply_2(ptr noundef %0, ptr noundef nonnull inttoptr (i64 1 to ptr), ptr noundef nonnull %.sink) #4
  ret ptr %43
}